target datalayout = "e-m:e-p270:32:32-p271:32:32-p272:64:64-i64:64-i128:128-f80:128-n8:16:32:64-S128"
target triple = "x86_64-unknown-linux-gnu"

%struct.QemuMutex = type { %union.pthread_mutex_t, i8 }
%union.pthread_mutex_t = type { %struct.__pthread_mutex_s }
%struct.__pthread_mutex_s = type { i32, i32, i32, i32, i32, i16, i16, %struct.__pthread_internal_list }
%struct.__pthread_internal_list = type { ptr, ptr }
%struct.anon.21 = type { ptr }
%struct.BounceBuffer = type { ptr, ptr, i64, i64, i8 }
%struct.MemTxAttrs = type { i32 }
%struct.MapClient = type { ptr, %struct.anon.20 }
%struct.anon.20 = type { ptr, ptr }

@.str.1 = private unnamed_addr constant [25 x i8] c"../qemu/system/physmem.c\00", align 1
@qemu_mutex_lock_func = external global ptr, align 8
@map_client_list_lock = dso_local global %struct.QemuMutex zeroinitializer, align 8
@map_client_list = internal global %struct.anon.21 zeroinitializer, align 8
@bounce = internal global %struct.BounceBuffer zeroinitializer, align 8
@.str.51 = private unnamed_addr constant [11 x i8] c"mr != NULL\00", align 1
@__PRETTY_FUNCTION__.address_space_unmap = private unnamed_addr constant [72 x i8] c"void address_space_unmap(AddressSpace *, void *, hwaddr, _Bool, hwaddr)\00", align 1
@__func__.address_space_unmap = private unnamed_addr constant [20 x i8] c"address_space_unmap\00", align 1
@__func__.cpu_notify_map_clients = private unnamed_addr constant [23 x i8] c"cpu_notify_map_clients\00", align 1

; Function Attrs: nounwind sspstrong uwtable
define internal void @cpu_unregister_map_client_do(ptr noundef %client) #0 {
entry:
  %client.addr = alloca ptr, align 8
  store ptr %client, ptr %client.addr, align 8
  br label %do.body

do.body:                                          ; preds = %entry
  %0 = load ptr, ptr %client.addr, align 8
  %link = getelementptr inbounds %struct.MapClient, ptr %0, i32 0, i32 1
  %le_next = getelementptr inbounds %struct.anon.20, ptr %link, i32 0, i32 0
  %1 = load ptr, ptr %le_next, align 8
  %cmp = icmp ne ptr %1, null
  br i1 %cmp, label %if.then, label %if.end

if.then:                                          ; preds = %do.body
  %2 = load ptr, ptr %client.addr, align 8
  %link1 = getelementptr inbounds %struct.MapClient, ptr %2, i32 0, i32 1
  %le_prev = getelementptr inbounds %struct.anon.20, ptr %link1, i32 0, i32 1
  %3 = load ptr, ptr %le_prev, align 8
  %4 = load ptr, ptr %client.addr, align 8
  %link2 = getelementptr inbounds %struct.MapClient, ptr %4, i32 0, i32 1
  %le_next3 = getelementptr inbounds %struct.anon.20, ptr %link2, i32 0, i32 0
  %5 = load ptr, ptr %le_next3, align 8
  %link4 = getelementptr inbounds %struct.MapClient, ptr %5, i32 0, i32 1
  %le_prev5 = getelementptr inbounds %struct.anon.20, ptr %link4, i32 0, i32 1
  store ptr %3, ptr %le_prev5, align 8
  br label %if.end

if.end:                                           ; preds = %if.then, %do.body
  %6 = load ptr, ptr %client.addr, align 8
  %link6 = getelementptr inbounds %struct.MapClient, ptr %6, i32 0, i32 1
  %le_next7 = getelementptr inbounds %struct.anon.20, ptr %link6, i32 0, i32 0
  %7 = load ptr, ptr %le_next7, align 8
  %8 = load ptr, ptr %client.addr, align 8
  %link8 = getelementptr inbounds %struct.MapClient, ptr %8, i32 0, i32 1
  %le_prev9 = getelementptr inbounds %struct.anon.20, ptr %link8, i32 0, i32 1
  %9 = load ptr, ptr %le_prev9, align 8
  store ptr %7, ptr %9, align 8
  %10 = load ptr, ptr %client.addr, align 8
  %link10 = getelementptr inbounds %struct.MapClient, ptr %10, i32 0, i32 1
  %le_next11 = getelementptr inbounds %struct.anon.20, ptr %link10, i32 0, i32 0
  store ptr null, ptr %le_next11, align 8
  %11 = load ptr, ptr %client.addr, align 8
  %link12 = getelementptr inbounds %struct.MapClient, ptr %11, i32 0, i32 1
  %le_prev13 = getelementptr inbounds %struct.anon.20, ptr %link12, i32 0, i32 1
  store ptr null, ptr %le_prev13, align 8
  br label %do.end

do.end:                                           ; preds = %if.end
  %12 = load ptr, ptr %client.addr, align 8
  call void @g_free(ptr noundef %12)
  ret void
}

; Function Attrs: nounwind sspstrong uwtable
define internal void @cpu_notify_map_clients_locked() #0 {
entry:
  %client = alloca ptr, align 8
  br label %while.cond

while.cond:                                       ; preds = %while.body, %entry
  %0 = load ptr, ptr @map_client_list, align 8
  %cmp = icmp eq ptr %0, null
  %lnot = xor i1 %cmp, true
  br i1 %lnot, label %while.body, label %while.end

while.body:                                       ; preds = %while.cond
  %1 = load ptr, ptr @map_client_list, align 8
  store ptr %1, ptr %client, align 8
  %2 = load ptr, ptr %client, align 8
  %bh = getelementptr inbounds %struct.MapClient, ptr %2, i32 0, i32 0
  %3 = load ptr, ptr %bh, align 8
  call void @qemu_bh_schedule(ptr noundef %3)
  %4 = load ptr, ptr %client, align 8
  call void @cpu_unregister_map_client_do(ptr noundef %4)
  br label %while.cond, !llvm.loop !57

while.end:                                        ; preds = %while.cond
  ret void
}

; Function Attrs: nounwind sspstrong uwtable
define internal void @cpu_notify_map_clients() #0 {
entry:
  %_f = alloca ptr, align 8
  %tmp = alloca ptr, align 8
  %atomic-temp = alloca ptr, align 8
  br label %while.cond

while.cond:                                       ; preds = %do.end, %entry
  br i1 false, label %while.body, label %while.end

while.body:                                       ; preds = %while.cond
  br label %do.body

do.body:                                          ; preds = %while.body
  call void @g_assertion_message_expr(ptr noundef null, ptr noundef @.str.1, i32 noundef 3060, ptr noundef @__func__.cpu_notify_map_clients, ptr noundef null) #14
  unreachable

do.end:                                           ; No predecessors!
  br label %while.cond

while.end:                                        ; preds = %while.cond
  %0 = load atomic i64, ptr @qemu_mutex_lock_func monotonic, align 8
  store i64 %0, ptr %atomic-temp, align 8
  %1 = load ptr, ptr %atomic-temp, align 8
  store ptr %1, ptr %tmp, align 8
  %2 = load ptr, ptr %tmp, align 8
  store ptr %2, ptr %_f, align 8
  %3 = load ptr, ptr %_f, align 8
  call void %3(ptr noundef @map_client_list_lock, ptr noundef @.str.1, i32 noundef 3060)
  call void @cpu_notify_map_clients_locked()
  call void @qemu_mutex_unlock_impl(ptr noundef @map_client_list_lock, ptr noundef @.str.1, i32 noundef 3062)
  ret void
}

; Function Attrs: nounwind sspstrong uwtable
define dso_local void @address_space_unmap(ptr noundef %as, ptr noundef %buffer, i64 noundef %len, i1 noundef zeroext %is_write, i64 noundef %access_len) #0 {
entry:
  %as.addr = alloca ptr, align 8
  %buffer.addr = alloca ptr, align 8
  %len.addr = alloca i64, align 8
  %is_write.addr = alloca i8, align 1
  %access_len.addr = alloca i64, align 8
  %mr = alloca ptr, align 8
  %addr1 = alloca i64, align 8
  %.compoundliteral = alloca %struct.MemTxAttrs, align 4
  %tmp = alloca i8, align 1
  %tmp37 = alloca i8, align 1
  %.atomictmp = alloca i8, align 1
  %atomic-temp = alloca i8, align 1
  store ptr %as, ptr %as.addr, align 8
  store ptr %buffer, ptr %buffer.addr, align 8
  store i64 %len, ptr %len.addr, align 8
  %frombool = zext i1 %is_write to i8
  store i8 %frombool, ptr %is_write.addr, align 1
  store i64 %access_len, ptr %access_len.addr, align 8
  %0 = load ptr, ptr %buffer.addr, align 8
  %1 = getelementptr inbounds %struct.BounceBuffer, ptr @bounce, i32 0, i32 1
  %2 = load ptr, ptr %1, align 8
  %cmp = icmp ne ptr %0, %2
  br i1 %cmp, label %if.then, label %if.end5

if.then:                                          ; preds = %entry
  %3 = load ptr, ptr %buffer.addr, align 8
  %call = call ptr @memory_region_from_host(ptr noundef %3, ptr noundef %addr1)
  store ptr %call, ptr %mr, align 8
  %4 = load ptr, ptr %mr, align 8
  %cmp1 = icmp ne ptr %4, null
  br i1 %cmp1, label %if.then2, label %if.else

if.then2:                                         ; preds = %if.then
  br label %if.end

if.else:                                          ; preds = %if.then
  call void @__assert_fail(ptr noundef @.str.51, ptr noundef @.str.1, i32 noundef 3194, ptr noundef @__PRETTY_FUNCTION__.address_space_unmap) #13
  unreachable

if.end:                                           ; preds = %if.then2
  %5 = load i8, ptr %is_write.addr, align 1
  %tobool = trunc i8 %5 to i1
  br i1 %tobool, label %if.then3, label %if.end4

if.then3:                                         ; preds = %if.end
  %6 = load ptr, ptr %mr, align 8
  %7 = load i64, ptr %addr1, align 8
  %8 = load i64, ptr %access_len.addr, align 8
  call void @invalidate_and_set_dirty(ptr noundef %6, i64 noundef %7, i64 noundef %8)
  br label %if.end4

if.end4:                                          ; preds = %if.then3, %if.end
  %9 = load ptr, ptr %mr, align 8
  call void @memory_region_unref(ptr noundef %9)
  br label %return

if.end5:                                          ; preds = %entry
  %10 = load i8, ptr %is_write.addr, align 1
  %tobool6 = trunc i8 %10 to i1
  br i1 %tobool6, label %if.then7, label %if.end36

if.then7:                                         ; preds = %if.end5
  %11 = load ptr, ptr %as.addr, align 8
  %12 = getelementptr inbounds %struct.BounceBuffer, ptr @bounce, i32 0, i32 2
  %13 = load i64, ptr %12, align 8
  %bf.load = load i32, ptr %.compoundliteral, align 4
  %bf.clear = and i32 %bf.load, -2
  %bf.set = or i32 %bf.clear, 1
  store i32 %bf.set, ptr %.compoundliteral, align 4
  %bf.load8 = load i32, ptr %.compoundliteral, align 4
  %bf.clear9 = and i32 %bf.load8, -3
  %bf.set10 = or i32 %bf.clear9, 0
  store i32 %bf.set10, ptr %.compoundliteral, align 4
  %bf.load11 = load i32, ptr %.compoundliteral, align 4
  %bf.clear12 = and i32 %bf.load11, -13
  %bf.set13 = or i32 %bf.clear12, 0
  store i32 %bf.set13, ptr %.compoundliteral, align 4
  %bf.load14 = load i32, ptr %.compoundliteral, align 4
  %bf.clear15 = and i32 %bf.load14, -17
  %bf.set16 = or i32 %bf.clear15, 0
  store i32 %bf.set16, ptr %.compoundliteral, align 4
  %bf.load17 = load i32, ptr %.compoundliteral, align 4
  %bf.clear18 = and i32 %bf.load17, -33
  %bf.set19 = or i32 %bf.clear18, 0
  store i32 %bf.set19, ptr %.compoundliteral, align 4
  %bf.load20 = load i32, ptr %.compoundliteral, align 4
  %bf.clear21 = and i32 %bf.load20, -4194241
  %bf.set22 = or i32 %bf.clear21, 0
  store i32 %bf.set22, ptr %.compoundliteral, align 4
  %bf.load23 = load i32, ptr %.compoundliteral, align 4
  %bf.clear24 = and i32 %bf.load23, -4194305
  %bf.set25 = or i32 %bf.clear24, 0
  store i32 %bf.set25, ptr %.compoundliteral, align 4
  %bf.load26 = load i32, ptr %.compoundliteral, align 4
  %bf.clear27 = and i32 %bf.load26, -8388609
  %bf.set28 = or i32 %bf.clear27, 0
  store i32 %bf.set28, ptr %.compoundliteral, align 4
  %bf.load29 = load i32, ptr %.compoundliteral, align 4
  %bf.clear30 = and i32 %bf.load29, -16777217
  %bf.set31 = or i32 %bf.clear30, 0
  store i32 %bf.set31, ptr %.compoundliteral, align 4
  %bf.load32 = load i32, ptr %.compoundliteral, align 4
  %bf.clear33 = and i32 %bf.load32, -33554433
  %bf.set34 = or i32 %bf.clear33, 0
  store i32 %bf.set34, ptr %.compoundliteral, align 4
  %14 = getelementptr inbounds %struct.BounceBuffer, ptr @bounce, i32 0, i32 1
  %15 = load ptr, ptr %14, align 8
  %16 = load i64, ptr %access_len.addr, align 8
  %coerce.dive = getelementptr inbounds %struct.MemTxAttrs, ptr %.compoundliteral, i32 0, i32 0
  %17 = load i32, ptr %coerce.dive, align 4
  %call35 = call i32 @address_space_write(ptr noundef %11, i64 noundef %13, i32 %17, ptr noundef %15, i64 noundef %16)
  br label %if.end36

if.end36:                                         ; preds = %if.then7, %if.end5
  %18 = getelementptr inbounds %struct.BounceBuffer, ptr @bounce, i32 0, i32 1
  %19 = load ptr, ptr %18, align 8
  call void @qemu_vfree(ptr noundef %19)
  %20 = getelementptr inbounds %struct.BounceBuffer, ptr @bounce, i32 0, i32 1
  store ptr null, ptr %20, align 8
  %21 = load ptr, ptr @bounce, align 8
  call void @memory_region_unref(ptr noundef %21)
  br label %while.cond

while.cond:                                       ; preds = %do.end, %if.end36
  br i1 false, label %while.body, label %while.end

while.body:                                       ; preds = %while.cond
  br label %do.body

do.body:                                          ; preds = %while.body
  call void @g_assertion_message_expr(ptr noundef null, ptr noundef @.str.1, i32 noundef 3212, ptr noundef @__func__.address_space_unmap, ptr noundef null) #14
  unreachable

do.end:                                           ; No predecessors!
  br label %while.cond

while.end:                                        ; preds = %while.cond
  store i8 0, ptr %.atomictmp, align 1
  %22 = load i8, ptr %.atomictmp, align 1
  %23 = getelementptr inbounds %struct.BounceBuffer, ptr @bounce, i32 0, i32 4
  %24 = atomicrmw xchg ptr %23, i8 %22 seq_cst, align 8
  store i8 %24, ptr %atomic-temp, align 1
  %25 = load i8, ptr %atomic-temp, align 1
  %tobool38 = trunc i8 %25 to i1
  %frombool39 = zext i1 %tobool38 to i8
  store i8 %frombool39, ptr %tmp37, align 1
  %26 = load i8, ptr %tmp37, align 1
  %tobool40 = trunc i8 %26 to i1
  %frombool41 = zext i1 %tobool40 to i8
  store i8 %frombool41, ptr %tmp, align 1
  fence syncscope("singlethread") seq_cst
  call void @cpu_notify_map_clients()
  br label %return

return:                                           ; preds = %while.end, %if.end4
  ret void
}