; Function Attrs: nounwind sspstrong uwtable
define dso_local void @address_space_unmap(ptr noundef readonly captures(none) %as, ptr noundef %buffer, i64 %len, i1 noundef zeroext %is_write, i64 noundef %access_len) local_unnamed_addr #0 {
entry:
  %addr1 = alloca i64, align 8
  %0 = load ptr, ptr getelementptr inbounds nuw (i8, ptr @bounce, i64 8), align 8
  %cmp.not = icmp eq ptr %buffer, %0
  br i1 %cmp.not, label %if.end5, label %if.then

if.then:                                          ; preds = %entry
  %call = call ptr @memory_region_from_host(ptr noundef %buffer, ptr noundef nonnull %addr1) #28
  %cmp1.not = icmp eq ptr %call, null
  br i1 %cmp1.not, label %if.else, label %if.end

if.else:                                          ; preds = %if.then
  call void @__assert_fail(ptr noundef nonnull @.str.51, ptr noundef nonnull @.str.1, i32 noundef 3194, ptr noundef nonnull @__PRETTY_FUNCTION__.address_space_unmap) #27
  unreachable

if.end:                                           ; preds = %if.then
  br i1 %is_write, label %if.then3, label %if.end4

if.then3:                                         ; preds = %if.end
  %1 = load i64, ptr %addr1, align 8
  call fastcc void @invalidate_and_set_dirty(ptr noundef nonnull %call, i64 noundef %1, i64 noundef %access_len)
  br label %if.end4

if.end4:                                          ; preds = %if.then3, %if.end
  call void @memory_region_unref(ptr noundef nonnull %call) #28
  br label %return

if.end5:                                          ; preds = %entry
  br i1 %is_write, label %if.then7, label %if.end36

if.then7:                                         ; preds = %if.end5
  %2 = load i64, ptr getelementptr inbounds nuw (i8, ptr @bounce, i64 16), align 8
  %call35 = tail call i32 @address_space_write(ptr noundef %as, i64 noundef %2, i32 1, ptr noundef %0, i64 noundef %access_len)
  %.pre = load ptr, ptr getelementptr inbounds nuw (i8, ptr @bounce, i64 8), align 8
  br label %if.end36

if.end36:                                         ; preds = %if.then7, %if.end5
  %3 = phi ptr [ %.pre, %if.then7 ], [ %0, %if.end5 ]
  tail call void @qemu_vfree(ptr noundef %3) #28
  store ptr null, ptr getelementptr inbounds nuw (i8, ptr @bounce, i64 8), align 8
  %4 = load ptr, ptr @bounce, align 8
  tail call void @memory_region_unref(ptr noundef %4) #28
  %5 = atomicrmw xchg ptr getelementptr inbounds nuw (i8, ptr @bounce, i64 32), i8 0 seq_cst, align 8
  fence syncscope("singlethread") seq_cst
  %6 = load atomic i64, ptr @qemu_mutex_lock_func monotonic, align 8
  %7 = inttoptr i64 %6 to ptr
  tail call void %7(ptr noundef nonnull @map_client_list_lock, ptr noundef nonnull @.str.1, i32 noundef 3060) #28
  %8 = load ptr, ptr @map_client_list, align 8
  %cmp.not2.i.i = icmp eq ptr %8, null
  br i1 %cmp.not2.i.i, label %cpu_notify_map_clients.exit, label %while.body.i.i

while.body.i.i:                                   ; preds = %if.end36, %cpu_unregister_map_client_do.exit.i.i
  %9 = phi ptr [ %13, %cpu_unregister_map_client_do.exit.i.i ], [ %8, %if.end36 ]
  %10 = load ptr, ptr %9, align 8
  tail call void @qemu_bh_schedule(ptr noundef %10) #28
  %link.i.i.i = getelementptr inbounds nuw i8, ptr %9, i64 8
  %11 = load ptr, ptr %link.i.i.i, align 8
  %cmp.not.i.i.i = icmp eq ptr %11, null
  %le_prev9.phi.trans.insert.i.i.i = getelementptr inbounds nuw i8, ptr %9, i64 16
  %.pre8.i.i.i = load ptr, ptr %le_prev9.phi.trans.insert.i.i.i, align 8
  br i1 %cmp.not.i.i.i, label %cpu_unregister_map_client_do.exit.i.i, label %if.then.i.i.i

if.then.i.i.i:                                    ; preds = %while.body.i.i
  %le_prev5.i.i.i = getelementptr inbounds nuw i8, ptr %11, i64 16
  store ptr %.pre8.i.i.i, ptr %le_prev5.i.i.i, align 8
  %.pre.i.i.i = load ptr, ptr %link.i.i.i, align 8
  br label %cpu_unregister_map_client_do.exit.i.i

cpu_unregister_map_client_do.exit.i.i:            ; preds = %if.then.i.i.i, %while.body.i.i
  %12 = phi ptr [ %.pre.i.i.i, %if.then.i.i.i ], [ null, %while.body.i.i ]
  store ptr %12, ptr %.pre8.i.i.i, align 8
  tail call void @llvm.memset.p0.i64(ptr noundef nonnull align 8 dereferenceable(16) %link.i.i.i, i8 0, i64 16, i1 false)
  tail call void @g_free(ptr noundef nonnull %9) #28
  %13 = load ptr, ptr @map_client_list, align 8
  %cmp.not.i.i = icmp eq ptr %13, null
  br i1 %cmp.not.i.i, label %cpu_notify_map_clients.exit, label %while.body.i.i, !llvm.loop !74

cpu_notify_map_clients.exit:                      ; preds = %cpu_unregister_map_client_do.exit.i.i, %if.end36
  tail call void @qemu_mutex_unlock_impl(ptr noundef nonnull @map_client_list_lock, ptr noundef nonnull @.str.1, i32 noundef 3062) #28
  br label %return

return:                                           ; preds = %cpu_notify_map_clients.exit, %if.end4
  ret void
}